target datalayout = "e-m:e-p270:32:32-p271:32:32-p272:64:64-i64:64-i128:128-f80:128-n8:16:32:64-S128"
target triple = "x86_64-pc-linux-gnu"

%"class.open3d::core::SmallVectorBase" = type { ptr, i32, i32 }
%"class.open3d::utility::optional" = type { %"struct.open3d::utility::constexpr_optional_base" }
%"struct.open3d::utility::constexpr_optional_base" = type { i8, %"union.open3d::utility::constexpr_storage_t" }
%"union.open3d::utility::constexpr_storage_t" = type { i64 }

@.str.3 = private unnamed_addr constant [20 x i8] c"bad optional access\00", align 1
@_ZTIN6open3d7utility19bad_optional_accessE = linkonce_odr constant { ptr, ptr, ptr } { ptr getelementptr inbounds (ptr, ptr @_ZTVN10__cxxabiv120__si_class_type_infoE, i64 2), ptr @_ZTSN6open3d7utility19bad_optional_accessE, ptr @_ZTISt11logic_error }, comdat, align 8
@_ZTVN6open3d7utility19bad_optional_accessE = linkonce_odr unnamed_addr constant { [5 x ptr] } { [5 x ptr] [ptr null, ptr @_ZTIN6open3d7utility19bad_optional_accessE, ptr @_ZNSt11logic_errorD2Ev, ptr @_ZN6open3d7utility19bad_optional_accessD0Ev, ptr @_ZNKSt11logic_error4whatEv] }, comdat, align 8

; Function Attrs: mustprogress nounwind ssp uwtable
define linkonce_odr noundef ptr @_ZNK6open3d4core25SmallVectorTemplateCommonIlvE5beginEv(ptr noundef nonnull align 8 dereferenceable(16) %0) #2 comdat align 2 {
  %2 = alloca ptr, align 8
  store ptr %0, ptr %2, align 8, !tbaa !73
  %3 = load ptr, ptr %2, align 8
  %4 = getelementptr inbounds nuw %"class.open3d::core::SmallVectorBase", ptr %3, i32 0, i32 0
  %5 = load ptr, ptr %4, align 8, !tbaa !29
  ret ptr %5
}

; Function Attrs: mustprogress ssp uwtable
define linkonce_odr void @_ZN6open3d7utility19bad_optional_accessC2EPKc(ptr noundef nonnull align 8 dereferenceable(16) %0, ptr noundef %1) unnamed_addr #0 comdat align 2 {
  %3 = alloca ptr, align 8
  %4 = alloca ptr, align 8
  store ptr %0, ptr %3, align 8, !tbaa !102
  store ptr %1, ptr %4, align 8, !tbaa !81
  %5 = load ptr, ptr %3, align 8
  %6 = load ptr, ptr %4, align 8, !tbaa !81
  call void @_ZNSt11logic_errorC2EPKc(ptr noundef nonnull align 8 dereferenceable(16) %5, ptr noundef %6)
  store ptr getelementptr inbounds inrange(-16, 24) ({ [5 x ptr] }, ptr @_ZTVN6open3d7utility19bad_optional_accessE, i32 0, i32 0, i32 2), ptr %5, align 8, !tbaa !104
  ret void
}

; Function Attrs: mustprogress nounwind ssp uwtable
define linkonce_odr noundef nonnull align 8 dereferenceable(8) ptr @_ZNKR6open3d7utility8optionalIlE13contained_valEv(ptr noundef nonnull align 8 dereferenceable(16) %0) #2 comdat align 2 {
  %2 = alloca ptr, align 8
  store ptr %0, ptr %2, align 8, !tbaa !12
  %3 = load ptr, ptr %2, align 8
  %4 = getelementptr inbounds nuw %"struct.open3d::utility::constexpr_optional_base", ptr %3, i32 0, i32 1
  ret ptr %4
}

; Function Attrs: mustprogress nounwind ssp uwtable
define linkonce_odr noundef zeroext i1 @_ZNK6open3d7utility8optionalIlE11initializedEv(ptr noundef nonnull align 8 dereferenceable(16) %0) #2 comdat align 2 {
  %2 = alloca ptr, align 8
  store ptr %0, ptr %2, align 8, !tbaa !12
  %3 = load ptr, ptr %2, align 8
  %4 = getelementptr inbounds nuw %"struct.open3d::utility::constexpr_optional_base", ptr %3, i32 0, i32 0
  %5 = load i8, ptr %4, align 8, !tbaa !50, !range !54, !noundef !55
  %6 = trunc i8 %5 to i1
  ret i1 %6
}

; Function Attrs: mustprogress nounwind ssp uwtable
define linkonce_odr noundef ptr @_ZNK6open3d4core25SmallVectorTemplateCommonINS_7utility8optionalIlEEvE5beginEv(ptr noundef nonnull align 8 dereferenceable(16) %0) #2 comdat align 2 {
  %2 = alloca ptr, align 8
  store ptr %0, ptr %2, align 8, !tbaa !24
  %3 = load ptr, ptr %2, align 8
  %4 = getelementptr inbounds nuw %"class.open3d::core::SmallVectorBase", ptr %3, i32 0, i32 0
  %5 = load ptr, ptr %4, align 8, !tbaa !29
  ret ptr %5
}

; Function Attrs: mustprogress nounwind ssp uwtable
define linkonce_odr noundef nonnull align 8 dereferenceable(8) ptr @_ZNK6open3d4core25SmallVectorTemplateCommonIlvEixEm(ptr noundef nonnull align 8 dereferenceable(16) %0, i64 noundef %1) #2 comdat align 2 {
  %3 = alloca ptr, align 8
  %4 = alloca i64, align 8
  store ptr %0, ptr %3, align 8, !tbaa !73
  store i64 %1, ptr %4, align 8, !tbaa !14
  %5 = load ptr, ptr %3, align 8
  %6 = call noundef ptr @_ZNK6open3d4core25SmallVectorTemplateCommonIlvE5beginEv(ptr noundef nonnull align 8 dereferenceable(16) %5)
  %7 = load i64, ptr %4, align 8, !tbaa !14
  %8 = getelementptr inbounds nuw i64, ptr %6, i64 %7
  ret ptr %8
}

; Function Attrs: mustprogress ssp uwtable
define linkonce_odr noundef nonnull align 8 dereferenceable(8) ptr @_ZNKR6open3d7utility8optionalIlE5valueEv(ptr noundef nonnull align 8 dereferenceable(16) %0) #0 comdat align 2 personality ptr @__gxx_personality_v0 {
  %2 = alloca ptr, align 8
  %3 = alloca ptr, align 8
  %4 = alloca i1, align 1
  %5 = alloca ptr, align 8
  %6 = alloca i32, align 4
  store ptr %0, ptr %2, align 8, !tbaa !12
  %7 = load ptr, ptr %2, align 8
  %8 = call noundef zeroext i1 @_ZNK6open3d7utility8optionalIlE11initializedEv(ptr noundef nonnull align 8 dereferenceable(16) %7) #25
  store i1 false, ptr %4, align 1
  br i1 %8, label %9, label %11

9:                                                ; preds = %1
  %10 = call noundef nonnull align 8 dereferenceable(8) ptr @_ZNKR6open3d7utility8optionalIlE13contained_valEv(ptr noundef nonnull align 8 dereferenceable(16) %7)
  br label %16

11:                                               ; preds = %1
  %12 = call ptr @__cxa_allocate_exception(i64 16) #25
  store ptr %12, ptr %3, align 8
  store i1 true, ptr %4, align 1
  invoke void @_ZN6open3d7utility19bad_optional_accessC2EPKc(ptr noundef nonnull align 8 dereferenceable(16) %12, ptr noundef @.str.3)
          to label %13 unwind label %18

13:                                               ; preds = %11
  call void @__cxa_throw(ptr %12, ptr @_ZTIN6open3d7utility19bad_optional_accessE, ptr @_ZNSt11logic_errorD2Ev) #26
  unreachable

14:                                               ; No predecessors!
  %15 = call noundef nonnull align 8 dereferenceable(8) ptr @_ZNKR6open3d7utility8optionalIlE13contained_valEv(ptr noundef nonnull align 8 dereferenceable(16) %7)
  br label %16

16:                                               ; preds = %14, %9
  %17 = phi ptr [ %10, %9 ], [ %15, %14 ]
  ret ptr %17

18:                                               ; preds = %11
  %19 = landingpad { ptr, i32 }
          cleanup
  %20 = extractvalue { ptr, i32 } %19, 0
  store ptr %20, ptr %5, align 8
  %21 = extractvalue { ptr, i32 } %19, 1
  store i32 %21, ptr %6, align 4
  %22 = load i1, ptr %4, align 1
  br i1 %22, label %23, label %25

23:                                               ; preds = %18
  %24 = load ptr, ptr %3, align 8
  call void @__cxa_free_exception(ptr %24) #25
  br label %25

25:                                               ; preds = %23, %18
  br label %26

26:                                               ; preds = %25
  %27 = load ptr, ptr %5, align 8
  %28 = load i32, ptr %6, align 4
  %29 = insertvalue { ptr, i32 } poison, ptr %27, 0
  %30 = insertvalue { ptr, i32 } %29, i32 %28, 1
  resume { ptr, i32 } %30
}

; Function Attrs: mustprogress nounwind ssp uwtable
define linkonce_odr noundef zeroext i1 @_ZNK6open3d7utility8optionalIlE9has_valueEv(ptr noundef nonnull align 8 dereferenceable(16) %0) #2 comdat align 2 {
  %2 = alloca ptr, align 8
  store ptr %0, ptr %2, align 8, !tbaa !12
  %3 = load ptr, ptr %2, align 8
  %4 = call noundef zeroext i1 @_ZNK6open3d7utility8optionalIlE11initializedEv(ptr noundef nonnull align 8 dereferenceable(16) %3) #25
  ret i1 %4
}

; Function Attrs: mustprogress nounwind ssp uwtable
define linkonce_odr noundef nonnull align 8 dereferenceable(16) ptr @_ZNK6open3d4core25SmallVectorTemplateCommonINS_7utility8optionalIlEEvEixEm(ptr noundef nonnull align 8 dereferenceable(16) %0, i64 noundef %1) #2 comdat align 2 {
  %3 = alloca ptr, align 8
  %4 = alloca i64, align 8
  store ptr %0, ptr %3, align 8, !tbaa !24
  store i64 %1, ptr %4, align 8, !tbaa !14
  %5 = load ptr, ptr %3, align 8
  %6 = call noundef ptr @_ZNK6open3d4core25SmallVectorTemplateCommonINS_7utility8optionalIlEEvE5beginEv(ptr noundef nonnull align 8 dereferenceable(16) %5)
  %7 = load i64, ptr %4, align 8, !tbaa !14
  %8 = getelementptr inbounds nuw %"class.open3d::utility::optional", ptr %6, i64 %7
  ret ptr %8
}

; Function Attrs: mustprogress nounwind ssp uwtable
define linkonce_odr noundef i64 @_ZNK6open3d4core15SmallVectorBaseIjE4sizeEv(ptr noundef nonnull align 8 dereferenceable(16) %0) #2 comdat align 2 {
  %2 = alloca ptr, align 8
  store ptr %0, ptr %2, align 8, !tbaa !26
  %3 = load ptr, ptr %2, align 8
  %4 = getelementptr inbounds nuw %"class.open3d::core::SmallVectorBase", ptr %3, i32 0, i32 1
  %5 = load i32, ptr %4, align 8, !tbaa !31
  %6 = zext i32 %5 to i64
  ret i64 %6
}

; Function Attrs: mustprogress ssp uwtable
define noundef zeroext i1 @_ZNK6open3d4core10SizeVector12IsCompatibleERKNS0_17DynamicSizeVectorE(ptr noundef nonnull align 8 dereferenceable(48) %0, ptr noundef nonnull align 8 dereferenceable(80) %1) #0 align 2 {
  %3 = alloca i1, align 1
  %4 = alloca ptr, align 8
  %5 = alloca ptr, align 8
  %6 = alloca i64, align 8
  %7 = alloca i32, align 4
  store ptr %0, ptr %4, align 8, !tbaa !71
  store ptr %1, ptr %5, align 8, !tbaa !4
  %8 = load ptr, ptr %4, align 8
  %9 = call noundef i64 @_ZNK6open3d4core15SmallVectorBaseIjE4sizeEv(ptr noundef nonnull align 8 dereferenceable(16) %8)
  %10 = load ptr, ptr %5, align 8, !tbaa !4
  %11 = call noundef i64 @_ZNK6open3d4core15SmallVectorBaseIjE4sizeEv(ptr noundef nonnull align 8 dereferenceable(16) %10)
  %12 = icmp ne i64 %9, %11
  br i1 %12, label %13, label %14

13:                                               ; preds = %2
  store i1 false, ptr %3, align 1
  br label %43

14:                                               ; preds = %2
  call void @llvm.lifetime.start.p0(i64 8, ptr %6) #25
  store i64 0, ptr %6, align 8, !tbaa !14
  br label %15

15:                                               ; preds = %37, %14
  %16 = load i64, ptr %6, align 8, !tbaa !14
  %17 = call noundef i64 @_ZNK6open3d4core15SmallVectorBaseIjE4sizeEv(ptr noundef nonnull align 8 dereferenceable(16) %8)
  %18 = icmp ult i64 %16, %17
  br i1 %18, label %20, label %19

19:                                               ; preds = %15
  store i32 2, ptr %7, align 4
  br label %40

20:                                               ; preds = %15
  %21 = load ptr, ptr %5, align 8, !tbaa !4
  %22 = load i64, ptr %6, align 8, !tbaa !14
  %23 = call noundef nonnull align 8 dereferenceable(16) ptr @_ZNK6open3d4core25SmallVectorTemplateCommonINS_7utility8optionalIlEEvEixEm(ptr noundef nonnull align 8 dereferenceable(16) %21, i64 noundef %22)
  %24 = call noundef zeroext i1 @_ZNK6open3d7utility8optionalIlE9has_valueEv(ptr noundef nonnull align 8 dereferenceable(16) %23) #25
  br i1 %24, label %25, label %36

25:                                               ; preds = %20
  %26 = load ptr, ptr %5, align 8, !tbaa !4
  %27 = load i64, ptr %6, align 8, !tbaa !14
  %28 = call noundef nonnull align 8 dereferenceable(16) ptr @_ZNK6open3d4core25SmallVectorTemplateCommonINS_7utility8optionalIlEEvEixEm(ptr noundef nonnull align 8 dereferenceable(16) %26, i64 noundef %27)
  %29 = call noundef nonnull align 8 dereferenceable(8) ptr @_ZNKR6open3d7utility8optionalIlE5valueEv(ptr noundef nonnull align 8 dereferenceable(16) %28)
  %30 = load i64, ptr %29, align 8, !tbaa !14
  %31 = load i64, ptr %6, align 8, !tbaa !14
  %32 = call noundef nonnull align 8 dereferenceable(8) ptr @_ZNK6open3d4core25SmallVectorTemplateCommonIlvEixEm(ptr noundef nonnull align 8 dereferenceable(16) %8, i64 noundef %31)
  %33 = load i64, ptr %32, align 8, !tbaa !14
  %34 = icmp ne i64 %30, %33
  br i1 %34, label %35, label %36

35:                                               ; preds = %25
  store i1 false, ptr %3, align 1
  store i32 1, ptr %7, align 4
  br label %40

36:                                               ; preds = %25, %20
  br label %37

37:                                               ; preds = %36
  %38 = load i64, ptr %6, align 8, !tbaa !14
  %39 = add i64 %38, 1
  store i64 %39, ptr %6, align 8, !tbaa !14
  br label %15, !llvm.loop !882

40:                                               ; preds = %35, %19
  call void @llvm.lifetime.end.p0(i64 8, ptr %6) #25
  %41 = load i32, ptr %7, align 4
  switch i32 %41, label %45 [
    i32 2, label %42
    i32 1, label %43
  ]

42:                                               ; preds = %40
  store i1 true, ptr %3, align 1
  br label %43

43:                                               ; preds = %42, %40, %13
  %44 = load i1, ptr %3, align 1
  ret i1 %44

45:                                               ; preds = %40
  unreachable
}