; Function Attrs: mustprogress nofree norecurse nosync nounwind ssp willreturn memory(read, inaccessiblemem: none) uwtable
define noundef zeroext i1 @_ZNK6open3d4core10SizeVector12IsCompatibleERKNS0_17DynamicSizeVectorE(ptr noundef nonnull readonly align 8 captures(none) dereferenceable(48) %0, ptr noundef nonnull readonly align 8 captures(none) dereferenceable(80) %1) local_unnamed_addr #24 align 2 personality ptr @__gxx_personality_v0 {
  %3 = getelementptr inbounds nuw i8, ptr %0, i64 8
  %4 = load i32, ptr %3, align 8, !tbaa !15
  %5 = zext i32 %4 to i64
  %6 = getelementptr inbounds nuw i8, ptr %1, i64 8
  %7 = load i32, ptr %6, align 8, !tbaa !15
  %.not = icmp eq i32 %4, %7
  br i1 %.not, label %.preheader, label %.loopexit

.preheader:                                       ; preds = %2
  %8 = icmp eq i32 %4, 0
  br i1 %8, label %.loopexit, label %.lr.ph

.lr.ph:                                           ; preds = %.preheader
  %9 = load ptr, ptr %1, align 8, !tbaa !11
  %10 = load ptr, ptr %0, align 8
  br label %11

11:                                               ; preds = %.lr.ph, %19
  %.01013 = phi i64 [ 0, %.lr.ph ], [ %20, %19 ]
  %12 = getelementptr inbounds nuw %"class.open3d::utility::optional", ptr %9, i64 %.01013
  %13 = load i8, ptr %12, align 8, !tbaa !16, !range !20, !noundef !21
  %14 = trunc nuw i8 %13 to i1
  br i1 %14, label %_ZNKR6open3d7utility8optionalIlE5valueEv.exit, label %19

_ZNKR6open3d7utility8optionalIlE5valueEv.exit:    ; preds = %11
  %15 = getelementptr inbounds nuw i8, ptr %12, i64 8
  %16 = load i64, ptr %15, align 8, !tbaa !9
  %17 = getelementptr inbounds nuw i64, ptr %10, i64 %.01013
  %18 = load i64, ptr %17, align 8, !tbaa !9
  %.not12 = icmp eq i64 %16, %18
  br i1 %.not12, label %19, label %.loopexit

19:                                               ; preds = %11, %_ZNKR6open3d7utility8optionalIlE5valueEv.exit
  %20 = add nuw nsw i64 %.01013, 1
  %exitcond.not = icmp eq i64 %20, %5
  br i1 %exitcond.not, label %.loopexit, label %11, !llvm.loop !662

.loopexit:                                        ; preds = %_ZNKR6open3d7utility8optionalIlE5valueEv.exit, %19, %.preheader, %2
  %.011 = phi i1 [ false, %2 ], [ true, %.preheader ], [ false, %_ZNKR6open3d7utility8optionalIlE5valueEv.exit ], [ true, %19 ]
  ret i1 %.011
}